	.file	"tiny.c"
	.text
	.globl	func1
	.type	func1, @function
func1:
.LFB0:
	.cfi_startproc
	endbr64
	pushq	%rbp
	.cfi_def_cfa_offset 16
	.cfi_offset 6, -16
	movq	%rsp, %rbp
	.cfi_def_cfa_register 6
	movzbl	-4(%rbp), %eax
	andl	$-32, %eax
	orl	$1, %eax
	movb	%al, -4(%rbp)
	movzbl	-4(%rbp), %eax
	andl	$31, %eax
	orl	$64, %eax
	movb	%al, -4(%rbp)
	movl	-4(%rbp), %eax
	popq	%rbp
	.cfi_def_cfa 7, 8
	ret
	.cfi_endproc
.LFE0:
	.size	func1, .-func1
	.section	.rodata
	.align 8
.LC0:
	.string	"bp offset %d, register %d, composite %d\n"
.LC1:
	.string	"offset 2 is %d, reg 2 is %d\n"
	.text
	.globl	main
	.type	main, @function
main:
.LFB1:
	.cfi_startproc
	endbr64
	pushq	%rbp
	.cfi_def_cfa_offset 16
	.cfi_offset 6, -16
	movq	%rsp, %rbp
	.cfi_def_cfa_register 6
	subq	$32, %rsp
	movl	$-16, -20(%rbp)
	movl	$3, -16(%rbp)
	movl	-20(%rbp), %eax
	sall	$8, %eax
	movl	%eax, %edx
	movl	-16(%rbp), %eax
	sall	$4, %eax
	orl	%edx, %eax
	movl	%eax, -12(%rbp)
	movl	-12(%rbp), %ecx
	movl	-16(%rbp), %edx
	movl	-20(%rbp), %eax
	movl	%eax, %esi
	leaq	.LC0(%rip), %rax
	movq	%rax, %rdi
	movl	$0, %eax
	call	printf@PLT
	movl	-12(%rbp), %eax
	sarl	$8, %eax
	movl	%eax, -8(%rbp)
	movl	-12(%rbp), %eax
	sarl	$4, %eax
	andl	$15, %eax
	movl	%eax, -4(%rbp)
	movl	-4(%rbp), %edx
	movl	-8(%rbp), %eax
	movl	%eax, %esi
	leaq	.LC1(%rip), %rax
	movq	%rax, %rdi
	movl	$0, %eax
	call	printf@PLT
	nop
	leave
	.cfi_def_cfa 7, 8
	ret
	.cfi_endproc
.LFE1:
	.size	main, .-main
	.ident	"GCC: (Ubuntu 11.3.0-1ubuntu1~22.04) 11.3.0"
	.section	.note.GNU-stack,"",@progbits
	.section	.note.gnu.property,"a"
	.align 8
	.long	1f - 0f
	.long	4f - 1f
	.long	5
0:
	.string	"GNU"
1:
	.align 8
	.long	0xc0000002
	.long	3f - 2f
2:
	.long	0x3
3:
	.align 8
4:
